; ModuleID = '42/1232.c'
source_filename = "42/1232.c"
target datalayout = "e-m:e-p270:32:32-p271:32:32-p272:64:64-i64:64-f80:128-n8:16:32:64-S128"
target triple = "x86_64-pc-linux-gnu"

@.str = private unnamed_addr constant [3 x i8] c"%d\00", align 1
@.str.1 = private unnamed_addr constant [4 x i8] c"%ld\00", align 1
@.str.2 = private unnamed_addr constant [5 x i8] c"%ld \00", align 1

; Function Attrs: noinline nounwind uwtable
define dso_local i32 @main() #0 {
  %1 = alloca i32, align 4
  %2 = alloca i32, align 4
  %3 = alloca i32, align 4
  %4 = alloca i32, align 4
  %5 = alloca i8*, align 8
  %6 = alloca i64, align 8
  %7 = alloca i64, align 8
  %8 = alloca i64, align 8
  store i32 0, i32* %1, align 4
  store i32 0, i32* %4, align 4
  %9 = call i32 (i8*, ...) @__isoc99_scanf(i8* getelementptr inbounds ([3 x i8], [3 x i8]* @.str, i64 0, i64 0), i32* %2)
  %10 = load i32, i32* %2, align 4
  %11 = zext i32 %10 to i64
  %12 = call i8* @llvm.stacksave()
  store i8* %12, i8** %5, align 8
  %13 = alloca i64, i64 %11, align 16
  store i64 %11, i64* %6, align 8
  %14 = load i32, i32* %2, align 4
  %15 = zext i32 %14 to i64
  %16 = alloca i32, i64 %15, align 16
  store i64 %15, i64* %8, align 8
  store i32 0, i32* %3, align 4
  br label %17

17:                                               ; preds = %26, %0
  %18 = load i32, i32* %3, align 4
  %19 = load i32, i32* %2, align 4
  %20 = icmp slt i32 %18, %19
  br i1 %20, label %21, label %29

21:                                               ; preds = %17
  %22 = load i32, i32* %3, align 4
  %23 = sext i32 %22 to i64
  %24 = getelementptr inbounds i64, i64* %13, i64 %23
  %25 = call i32 (i8*, ...) @__isoc99_scanf(i8* getelementptr inbounds ([4 x i8], [4 x i8]* @.str.1, i64 0, i64 0), i64* %24)
  br label %26

26:                                               ; preds = %21
  %27 = load i32, i32* %3, align 4
  %28 = add nsw i32 %27, 1
  store i32 %28, i32* %3, align 4
  br label %17

29:                                               ; preds = %17
  %30 = call i32 (i8*, ...) @__isoc99_scanf(i8* getelementptr inbounds ([4 x i8], [4 x i8]* @.str.1, i64 0, i64 0), i64* %7)
  store i32 0, i32* %3, align 4
  br label %31

31:                                               ; preds = %54, %29
  %32 = load i32, i32* %3, align 4
  %33 = load i32, i32* %2, align 4
  %34 = icmp slt i32 %32, %33
  br i1 %34, label %35, label %57

35:                                               ; preds = %31
  %36 = load i64, i64* %7, align 8
  %37 = load i32, i32* %3, align 4
  %38 = sext i32 %37 to i64
  %39 = getelementptr inbounds i64, i64* %13, i64 %38
  %40 = load i64, i64* %39, align 8
  %41 = icmp ne i64 %36, %40
  br i1 %41, label %42, label %53

42:                                               ; preds = %35
  %43 = load i32, i32* %3, align 4
  %44 = sext i32 %43 to i64
  %45 = getelementptr inbounds i64, i64* %13, i64 %44
  %46 = load i64, i64* %45, align 8
  %47 = trunc i64 %46 to i32
  %48 = load i32, i32* %4, align 4
  %49 = sext i32 %48 to i64
  %50 = getelementptr inbounds i32, i32* %16, i64 %49
  store i32 %47, i32* %50, align 4
  %51 = load i32, i32* %4, align 4
  %52 = add nsw i32 %51, 1
  store i32 %52, i32* %4, align 4
  br label %53

53:                                               ; preds = %42, %35
  br label %54

54:                                               ; preds = %53
  %55 = load i32, i32* %3, align 4
  %56 = add nsw i32 %55, 1
  store i32 %56, i32* %3, align 4
  br label %31

57:                                               ; preds = %31
  store i32 0, i32* %3, align 4
  br label %58

58:                                               ; preds = %69, %57
  %59 = load i32, i32* %3, align 4
  %60 = load i32, i32* %4, align 4
  %61 = sub nsw i32 %60, 1
  %62 = icmp slt i32 %59, %61
  br i1 %62, label %63, label %72

63:                                               ; preds = %58
  %64 = load i32, i32* %3, align 4
  %65 = sext i32 %64 to i64
  %66 = getelementptr inbounds i32, i32* %16, i64 %65
  %67 = load i32, i32* %66, align 4
  %68 = call i32 (i8*, ...) @printf(i8* getelementptr inbounds ([5 x i8], [5 x i8]* @.str.2, i64 0, i64 0), i32 %67)
  br label %69

69:                                               ; preds = %63
  %70 = load i32, i32* %3, align 4
  %71 = add nsw i32 %70, 1
  store i32 %71, i32* %3, align 4
  br label %58

72:                                               ; preds = %58
  %73 = load i32, i32* %4, align 4
  %74 = sub nsw i32 %73, 1
  %75 = sext i32 %74 to i64
  %76 = getelementptr inbounds i32, i32* %16, i64 %75
  %77 = load i32, i32* %76, align 4
  %78 = call i32 (i8*, ...) @printf(i8* getelementptr inbounds ([4 x i8], [4 x i8]* @.str.1, i64 0, i64 0), i32 %77)
  %79 = load i8*, i8** %5, align 8
  call void @llvm.stackrestore(i8* %79)
  %80 = load i32, i32* %1, align 4
  ret i32 %80
}

declare dso_local i32 @__isoc99_scanf(i8*, ...) #1

; Function Attrs: nounwind
declare i8* @llvm.stacksave() #2

declare dso_local i32 @printf(i8*, ...) #1

; Function Attrs: nounwind
declare void @llvm.stackrestore(i8*) #2


!llvm.module.flags = !{!0}
!llvm.ident = !{!1}

!0 = !{i32 1, !"wchar_size", i32 4}
!1 = !{!"clang version 10.0.0-4ubuntu1 "}
